target datalayout = "e-m:e-p270:32:32-p271:32:32-p272:64:64-i64:64-i128:128-f80:128-n8:16:32:64-S128"
target triple = "x86_64-pc-linux-gnu"

@.str.32 = private unnamed_addr constant [8 x i8] c"unknown\00", align 1
@.str.33 = private unnamed_addr constant [10 x i8] c"ROW_COUNT\00", align 1
@.str.34 = private unnamed_addr constant [15 x i8] c"PG_ROUTINE_OID\00", align 1
@.str.35 = private unnamed_addr constant [11 x i8] c"PG_CONTEXT\00", align 1
@.str.36 = private unnamed_addr constant [21 x i8] c"PG_EXCEPTION_CONTEXT\00", align 1
@.str.37 = private unnamed_addr constant [20 x i8] c"PG_EXCEPTION_DETAIL\00", align 1
@.str.38 = private unnamed_addr constant [18 x i8] c"PG_EXCEPTION_HINT\00", align 1
@.str.39 = private unnamed_addr constant [18 x i8] c"RETURNED_SQLSTATE\00", align 1
@.str.40 = private unnamed_addr constant [12 x i8] c"COLUMN_NAME\00", align 1
@.str.41 = private unnamed_addr constant [16 x i8] c"CONSTRAINT_NAME\00", align 1
@.str.42 = private unnamed_addr constant [17 x i8] c"PG_DATATYPE_NAME\00", align 1
@.str.43 = private unnamed_addr constant [13 x i8] c"MESSAGE_TEXT\00", align 1
@.str.44 = private unnamed_addr constant [11 x i8] c"TABLE_NAME\00", align 1
@.str.45 = private unnamed_addr constant [12 x i8] c"SCHEMA_NAME\00", align 1

; Function Attrs: nounwind uwtable
define hidden ptr @plpgsql_getdiag_kindname(i32 noundef %0) #0 {
  %2 = alloca ptr, align 8
  %3 = alloca i32, align 4
  store i32 %0, ptr %3, align 4
  %4 = load i32, ptr %3, align 4
  switch i32 %4, label %18 [
    i32 0, label %5
    i32 1, label %6
    i32 2, label %7
    i32 3, label %8
    i32 4, label %9
    i32 5, label %10
    i32 6, label %11
    i32 7, label %12
    i32 8, label %13
    i32 9, label %14
    i32 10, label %15
    i32 11, label %16
    i32 12, label %17
  ]

5:                                                ; preds = %1
  store ptr @.str.33, ptr %2, align 8
  br label %19

6:                                                ; preds = %1
  store ptr @.str.34, ptr %2, align 8
  br label %19

7:                                                ; preds = %1
  store ptr @.str.35, ptr %2, align 8
  br label %19

8:                                                ; preds = %1
  store ptr @.str.36, ptr %2, align 8
  br label %19

9:                                                ; preds = %1
  store ptr @.str.37, ptr %2, align 8
  br label %19

10:                                               ; preds = %1
  store ptr @.str.38, ptr %2, align 8
  br label %19

11:                                               ; preds = %1
  store ptr @.str.39, ptr %2, align 8
  br label %19

12:                                               ; preds = %1
  store ptr @.str.40, ptr %2, align 8
  br label %19

13:                                               ; preds = %1
  store ptr @.str.41, ptr %2, align 8
  br label %19

14:                                               ; preds = %1
  store ptr @.str.42, ptr %2, align 8
  br label %19

15:                                               ; preds = %1
  store ptr @.str.43, ptr %2, align 8
  br label %19

16:                                               ; preds = %1
  store ptr @.str.44, ptr %2, align 8
  br label %19

17:                                               ; preds = %1
  store ptr @.str.45, ptr %2, align 8
  br label %19

18:                                               ; preds = %1
  store ptr @.str.32, ptr %2, align 8
  br label %19

19:                                               ; preds = %18, %17, %16, %15, %14, %13, %12, %11, %10, %9, %8, %7, %6, %5
  %20 = load ptr, ptr %2, align 8
  ret ptr %20
}